target datalayout = "e-m:e-p270:32:32-p271:32:32-p272:64:64-i64:64-i128:128-f80:128-n8:16:32:64-S128"
target triple = "x86_64-pc-linux-gnu"

; Function Attrs: mustprogress nounwind uwtable
define hidden noundef ptr @_Z14opt_strip_pathPKc(ptr noundef %0) #0 {
  %2 = alloca ptr, align 8
  %3 = alloca ptr, align 8
  %4 = alloca ptr, align 8
  store ptr %0, ptr %2, align 8
  %5 = load ptr, ptr %2, align 8
  store ptr %5, ptr %4, align 8
  %6 = load ptr, ptr %4, align 8
  %7 = call noundef ptr @strrchr(ptr noundef %6, i32 noundef 92) #14
  store ptr %7, ptr %3, align 8
  %8 = load ptr, ptr %3, align 8
  %9 = load ptr, ptr %4, align 8
  %10 = icmp ugt ptr %8, %9
  br i1 %10, label %11, label %14

11:                                               ; preds = %1
  %12 = load ptr, ptr %3, align 8
  %13 = getelementptr inbounds i8, ptr %12, i64 1
  store ptr %13, ptr %4, align 8
  br label %14

14:                                               ; preds = %11, %1
  %15 = load ptr, ptr %4, align 8
  %16 = call noundef ptr @strrchr(ptr noundef %15, i32 noundef 47) #14
  store ptr %16, ptr %3, align 8
  %17 = load ptr, ptr %3, align 8
  %18 = load ptr, ptr %4, align 8
  %19 = icmp ugt ptr %17, %18
  br i1 %19, label %20, label %23

20:                                               ; preds = %14
  %21 = load ptr, ptr %3, align 8
  %22 = getelementptr inbounds i8, ptr %21, i64 1
  store ptr %22, ptr %4, align 8
  br label %23

23:                                               ; preds = %20, %14
  %24 = load ptr, ptr %4, align 8
  ret ptr %24
}