; Function Attrs: mustprogress nofree nounwind willreturn memory(read, inaccessiblemem: none) uwtable
define hidden noundef ptr @_Z14opt_strip_pathPKc(ptr noundef readonly %0) local_unnamed_addr #4 {
  %2 = tail call noundef ptr @strrchr(ptr noundef nonnull dereferenceable(1) %0, i32 noundef 92) #27
  %3 = icmp ugt ptr %2, %0
  %4 = getelementptr inbounds i8, ptr %2, i64 1
  %spec.select = select i1 %3, ptr %4, ptr %0
  %5 = tail call noundef ptr @strrchr(ptr noundef nonnull dereferenceable(1) %spec.select, i32 noundef 47) #27
  %6 = icmp ugt ptr %5, %spec.select
  %7 = getelementptr inbounds i8, ptr %5, i64 1
  %.1 = select i1 %6, ptr %7, ptr %spec.select
  ret ptr %.1
}